target datalayout = "e-m:e-p270:32:32-p271:32:32-p272:64:64-i64:64-i128:128-f80:128-n8:16:32:64-S128"
target triple = "x86_64-pc-linux-gnu"

%struct.AVFormatContext = type { ptr, ptr, ptr, ptr, ptr, i32, i32, ptr, i32, ptr, i32, ptr, ptr, i64, i64, i64, i32, i32, i32, i64, i64, ptr, i32, i32, ptr, i32, i32, i32, i32, ptr, i64, i32, i32, %struct.AVIOInterruptCB, i32, i32, i32, i32, i64, i32, i32, i32, i32, i32, i32, i32, i32, i32, i32, i32, i32, i64, i32, i32, i32, i32, i32, ptr, ptr, ptr, ptr, i32, ptr, ptr, ptr, ptr, i32, ptr, ptr, i64, ptr, ptr, ptr, i64 }
%struct.AVIOInterruptCB = type { ptr, ptr }
%struct.AVStream = type { ptr, i32, i32, ptr, ptr, %struct.AVRational, i64, i64, i64, i32, i32, %struct.AVRational, ptr, %struct.AVRational, %struct.AVPacket, i32, %struct.AVRational, i32 }
%struct.AVPacket = type { ptr, i64, i64, ptr, i32, i32, i32, ptr, i32, i64, i64, ptr, ptr, %struct.AVRational }
%struct.AVRational = type { i32, i32 }
%struct.AVCodecParameters = type { i32, i32, i32, ptr, i32, ptr, i32, i32, i64, i32, i32, i32, i32, i32, i32, %struct.AVRational, %struct.AVRational, i32, i32, i32, i32, i32, i32, i32, %struct.AVChannelLayout, i32, i32, i32, i32, i32, i32 }
%struct.AVChannelLayout = type { i32, i32, %union.anon, ptr }
%union.anon = type { i64 }
%struct.AVBPrint = type { ptr, i32, i32, i32, [1 x i8], [1000 x i8] }
%struct.AUContext = type { i32 }
%struct.AVDictionaryEntry = type { ptr, ptr }

@.str.13 = private unnamed_addr constant [19 x i8] c"unsupported codec\0A\00", align 1
@.str.14 = private unnamed_addr constant [5 x i8] c".snd\00", align 1
@au_get_annotations.keys = internal constant [5 x [7 x i8]] [[7 x i8] c"Title\00\00", [7 x i8] c"Artist\00", [7 x i8] c"Album\00\00", [7 x i8] c"Track\00\00", [7 x i8] c"Genre\00\00"], align 16
@.str.15 = private unnamed_addr constant [6 x i8] c"%s=%s\00", align 1

; Function Attrs: inlinehint nounwind uwtable
define internal i32 @av_bprint_is_complete(ptr noundef %0) #6 {
  %2 = alloca ptr, align 8
  store ptr %0, ptr %2, align 8, !tbaa !72
  %3 = load ptr, ptr %2, align 8, !tbaa !72
  %4 = getelementptr inbounds nuw %struct.AVBPrint, ptr %3, i32 0, i32 1
  %5 = load i32, ptr %4, align 8, !tbaa !60
  %6 = load ptr, ptr %2, align 8, !tbaa !72
  %7 = getelementptr inbounds nuw %struct.AVBPrint, ptr %6, i32 0, i32 2
  %8 = load i32, ptr %7, align 4, !tbaa !81
  %9 = icmp ult i32 %5, %8
  %10 = zext i1 %9 to i32
  ret i32 %10
}

; Function Attrs: alwaysinline nounwind uwtable
define internal void @ffio_wfourcc(ptr noundef %0, ptr noundef %1) #5 {
  %3 = alloca ptr, align 8
  %4 = alloca ptr, align 8
  store ptr %0, ptr %3, align 8, !tbaa !33
  store ptr %1, ptr %4, align 8, !tbaa !68
  %5 = load ptr, ptr %3, align 8, !tbaa !33
  %6 = load ptr, ptr %4, align 8, !tbaa !68
  %7 = getelementptr inbounds i8, ptr %6, i64 0
  %8 = load i8, ptr %7, align 1, !tbaa !14
  %9 = zext i8 %8 to i32
  %10 = load ptr, ptr %4, align 8, !tbaa !68
  %11 = getelementptr inbounds i8, ptr %10, i64 1
  %12 = load i8, ptr %11, align 1, !tbaa !14
  %13 = zext i8 %12 to i32
  %14 = shl i32 %13, 8
  %15 = or i32 %9, %14
  %16 = load ptr, ptr %4, align 8, !tbaa !68
  %17 = getelementptr inbounds i8, ptr %16, i64 2
  %18 = load i8, ptr %17, align 1, !tbaa !14
  %19 = zext i8 %18 to i32
  %20 = shl i32 %19, 16
  %21 = or i32 %15, %20
  %22 = load ptr, ptr %4, align 8, !tbaa !68
  %23 = getelementptr inbounds i8, ptr %22, i64 3
  %24 = load i8, ptr %23, align 1, !tbaa !14
  %25 = zext i8 %24 to i32
  %26 = shl i32 %25, 24
  %27 = or i32 %21, %26
  call void @avio_wl32(ptr noundef %5, i32 noundef %27)
  ret void
}

; Function Attrs: nounwind uwtable
define internal i32 @au_get_annotations(ptr noundef %0, ptr noundef %1) #0 {
  %3 = alloca ptr, align 8
  %4 = alloca ptr, align 8
  %5 = alloca i32, align 4
  %6 = alloca ptr, align 8
  %7 = alloca ptr, align 8
  %8 = alloca i32, align 4
  store ptr %0, ptr %3, align 8, !tbaa !15
  store ptr %1, ptr %4, align 8, !tbaa !72
  call void @llvm.lifetime.start.p0(i64 4, ptr %5) #7
  store i32 0, ptr %5, align 4, !tbaa !17
  call void @llvm.lifetime.start.p0(i64 8, ptr %6) #7
  %9 = load ptr, ptr %3, align 8, !tbaa !15
  %10 = getelementptr inbounds nuw %struct.AVFormatContext, ptr %9, i32 0, i32 29
  %11 = load ptr, ptr %10, align 8, !tbaa !74
  store ptr %11, ptr %6, align 8, !tbaa !75
  call void @llvm.lifetime.start.p0(i64 8, ptr %7) #7
  store ptr null, ptr %7, align 8, !tbaa !76
  call void @llvm.lifetime.start.p0(i64 4, ptr %8) #7
  store i32 0, ptr %8, align 4, !tbaa !17
  br label %12

12:                                               ; preds = %42, %2
  %13 = load i32, ptr %8, align 4, !tbaa !17
  %14 = sext i32 %13 to i64
  %15 = icmp ult i64 %14, 5
  br i1 %15, label %17, label %16

16:                                               ; preds = %12
  call void @llvm.lifetime.end.p0(i64 4, ptr %8) #7
  br label %45

17:                                               ; preds = %12
  %18 = load ptr, ptr %6, align 8, !tbaa !75
  %19 = load i32, ptr %8, align 4, !tbaa !17
  %20 = sext i32 %19 to i64
  %21 = getelementptr inbounds [5 x [7 x i8]], ptr @au_get_annotations.keys, i64 0, i64 %20
  %22 = getelementptr inbounds [7 x i8], ptr %21, i64 0, i64 0
  %23 = call ptr @av_dict_get(ptr noundef %18, ptr noundef %22, ptr noundef null, i32 noundef 0)
  store ptr %23, ptr %7, align 8, !tbaa !76
  %24 = load ptr, ptr %7, align 8, !tbaa !76
  %25 = icmp ne ptr %24, null
  br i1 %25, label %26, label %41

26:                                               ; preds = %17
  %27 = load i32, ptr %5, align 4, !tbaa !17
  %28 = add nsw i32 %27, 1
  store i32 %28, ptr %5, align 4, !tbaa !17
  %29 = icmp ne i32 %27, 0
  br i1 %29, label %30, label %32

30:                                               ; preds = %26
  %31 = load ptr, ptr %4, align 8, !tbaa !72
  call void @av_bprint_chars(ptr noundef %31, i8 noundef signext 10, i32 noundef 1)
  br label %32

32:                                               ; preds = %30, %26
  %33 = load ptr, ptr %4, align 8, !tbaa !72
  %34 = load i32, ptr %8, align 4, !tbaa !17
  %35 = sext i32 %34 to i64
  %36 = getelementptr inbounds [5 x [7 x i8]], ptr @au_get_annotations.keys, i64 0, i64 %35
  %37 = getelementptr inbounds [7 x i8], ptr %36, i64 0, i64 0
  %38 = load ptr, ptr %7, align 8, !tbaa !76
  %39 = getelementptr inbounds nuw %struct.AVDictionaryEntry, ptr %38, i32 0, i32 1
  %40 = load ptr, ptr %39, align 8, !tbaa !78
  call void (ptr, ptr, ...) @av_bprintf(ptr noundef %33, ptr noundef @.str.15, ptr noundef %37, ptr noundef %40)
  br label %41

41:                                               ; preds = %32, %17
  br label %42

42:                                               ; preds = %41
  %43 = load i32, ptr %8, align 4, !tbaa !17
  %44 = add nsw i32 %43, 1
  store i32 %44, ptr %8, align 4, !tbaa !17
  br label %12, !llvm.loop !80

45:                                               ; preds = %16
  %46 = load ptr, ptr %4, align 8, !tbaa !72
  call void @av_bprint_chars(ptr noundef %46, i8 noundef signext 0, i32 noundef 8)
  %47 = load ptr, ptr %4, align 8, !tbaa !72
  %48 = call i32 @av_bprint_is_complete(ptr noundef %47)
  %49 = icmp ne i32 %48, 0
  %50 = select i1 %49, i32 0, i32 -12
  call void @llvm.lifetime.end.p0(i64 8, ptr %7) #7
  call void @llvm.lifetime.end.p0(i64 8, ptr %6) #7
  call void @llvm.lifetime.end.p0(i64 4, ptr %5) #7
  ret i32 %50
}

; Function Attrs: nounwind uwtable
define internal i32 @au_write_header(ptr noundef %0) #0 {
  %2 = alloca i32, align 4
  %3 = alloca ptr, align 8
  %4 = alloca i32, align 4
  %5 = alloca ptr, align 8
  %6 = alloca ptr, align 8
  %7 = alloca ptr, align 8
  %8 = alloca %struct.AVBPrint, align 8
  %9 = alloca i32, align 4
  store ptr %0, ptr %3, align 8, !tbaa !15
  call void @llvm.lifetime.start.p0(i64 4, ptr %4) #7
  call void @llvm.lifetime.start.p0(i64 8, ptr %5) #7
  %10 = load ptr, ptr %3, align 8, !tbaa !15
  %11 = getelementptr inbounds nuw %struct.AVFormatContext, ptr %10, i32 0, i32 3
  %12 = load ptr, ptr %11, align 8, !tbaa !55
  store ptr %12, ptr %5, align 8, !tbaa !56
  call void @llvm.lifetime.start.p0(i64 8, ptr %6) #7
  %13 = load ptr, ptr %3, align 8, !tbaa !15
  %14 = getelementptr inbounds nuw %struct.AVFormatContext, ptr %13, i32 0, i32 4
  %15 = load ptr, ptr %14, align 8, !tbaa !18
  store ptr %15, ptr %6, align 8, !tbaa !33
  call void @llvm.lifetime.start.p0(i64 8, ptr %7) #7
  %16 = load ptr, ptr %3, align 8, !tbaa !15
  %17 = getelementptr inbounds nuw %struct.AVFormatContext, ptr %16, i32 0, i32 7
  %18 = load ptr, ptr %17, align 8, !tbaa !58
  %19 = getelementptr inbounds ptr, ptr %18, i64 0
  %20 = load ptr, ptr %19, align 8, !tbaa !34
  %21 = getelementptr inbounds nuw %struct.AVStream, ptr %20, i32 0, i32 3
  %22 = load ptr, ptr %21, align 8, !tbaa !36
  store ptr %22, ptr %7, align 8, !tbaa !59
  call void @llvm.lifetime.start.p0(i64 1024, ptr %8) #7
  %23 = load ptr, ptr %7, align 8, !tbaa !59
  %24 = getelementptr inbounds nuw %struct.AVCodecParameters, ptr %23, i32 0, i32 1
  %25 = load i32, ptr %24, align 4, !tbaa !47
  %26 = call i32 @ff_codec_get_tag(ptr noundef @codec_au_tags, i32 noundef %25)
  %27 = load ptr, ptr %7, align 8, !tbaa !59
  %28 = getelementptr inbounds nuw %struct.AVCodecParameters, ptr %27, i32 0, i32 2
  store i32 %26, ptr %28, align 8, !tbaa !46
  %29 = load ptr, ptr %7, align 8, !tbaa !59
  %30 = getelementptr inbounds nuw %struct.AVCodecParameters, ptr %29, i32 0, i32 2
  %31 = load i32, ptr %30, align 8, !tbaa !46
  %32 = icmp ne i32 %31, 0
  br i1 %32, label %35, label %33

33:                                               ; preds = %1
  %34 = load ptr, ptr %3, align 8, !tbaa !15
  call void (ptr, i32, ptr, ...) @av_log(ptr noundef %34, i32 noundef 16, ptr noundef @.str.13)
  store i32 -22, ptr %2, align 4
  store i32 1, ptr %9, align 4
  br label %76

35:                                               ; preds = %1
  call void @av_bprint_init(ptr noundef %8, i32 noundef 0, i32 noundef 2147483623)
  %36 = load ptr, ptr %3, align 8, !tbaa !15
  %37 = call i32 @au_get_annotations(ptr noundef %36, ptr noundef %8)
  store i32 %37, ptr %4, align 4, !tbaa !17
  %38 = load i32, ptr %4, align 4, !tbaa !17
  %39 = icmp slt i32 %38, 0
  br i1 %39, label %40, label %41

40:                                               ; preds = %35
  br label %73

41:                                               ; preds = %35
  %42 = getelementptr inbounds nuw %struct.AVBPrint, ptr %8, i32 0, i32 1
  %43 = load i32, ptr %42, align 8, !tbaa !60
  %44 = add i32 24, %43
  %45 = and i32 %44, -8
  %46 = load ptr, ptr %5, align 8, !tbaa !56
  %47 = getelementptr inbounds nuw %struct.AUContext, ptr %46, i32 0, i32 0
  store i32 %45, ptr %47, align 4, !tbaa !62
  %48 = load ptr, ptr %6, align 8, !tbaa !33
  call void @ffio_wfourcc(ptr noundef %48, ptr noundef @.str.14)
  %49 = load ptr, ptr %6, align 8, !tbaa !33
  %50 = load ptr, ptr %5, align 8, !tbaa !56
  %51 = getelementptr inbounds nuw %struct.AUContext, ptr %50, i32 0, i32 0
  %52 = load i32, ptr %51, align 4, !tbaa !62
  call void @avio_wb32(ptr noundef %49, i32 noundef %52)
  %53 = load ptr, ptr %6, align 8, !tbaa !33
  call void @avio_wb32(ptr noundef %53, i32 noundef -1)
  %54 = load ptr, ptr %6, align 8, !tbaa !33
  %55 = load ptr, ptr %7, align 8, !tbaa !59
  %56 = getelementptr inbounds nuw %struct.AVCodecParameters, ptr %55, i32 0, i32 2
  %57 = load i32, ptr %56, align 8, !tbaa !46
  call void @avio_wb32(ptr noundef %54, i32 noundef %57)
  %58 = load ptr, ptr %6, align 8, !tbaa !33
  %59 = load ptr, ptr %7, align 8, !tbaa !59
  %60 = getelementptr inbounds nuw %struct.AVCodecParameters, ptr %59, i32 0, i32 25
  %61 = load i32, ptr %60, align 8, !tbaa !49
  call void @avio_wb32(ptr noundef %58, i32 noundef %61)
  %62 = load ptr, ptr %6, align 8, !tbaa !33
  %63 = load ptr, ptr %7, align 8, !tbaa !59
  %64 = getelementptr inbounds nuw %struct.AVCodecParameters, ptr %63, i32 0, i32 24
  %65 = getelementptr inbounds nuw %struct.AVChannelLayout, ptr %64, i32 0, i32 1
  %66 = load i32, ptr %65, align 4, !tbaa !48
  call void @avio_wb32(ptr noundef %62, i32 noundef %66)
  %67 = load ptr, ptr %6, align 8, !tbaa !33
  %68 = getelementptr inbounds nuw %struct.AVBPrint, ptr %8, i32 0, i32 0
  %69 = load ptr, ptr %68, align 8, !tbaa !64
  %70 = getelementptr inbounds nuw %struct.AVBPrint, ptr %8, i32 0, i32 1
  %71 = load i32, ptr %70, align 8, !tbaa !60
  %72 = and i32 %71, -8
  call void @avio_write(ptr noundef %67, ptr noundef %69, i32 noundef %72)
  br label %73

73:                                               ; preds = %41, %40
  %74 = call i32 @av_bprint_finalize(ptr noundef %8, ptr noundef null)
  %75 = load i32, ptr %4, align 4, !tbaa !17
  store i32 %75, ptr %2, align 4
  store i32 1, ptr %9, align 4
  br label %76

76:                                               ; preds = %73, %33
  call void @llvm.lifetime.end.p0(i64 1024, ptr %8) #7
  call void @llvm.lifetime.end.p0(i64 8, ptr %7) #7
  call void @llvm.lifetime.end.p0(i64 8, ptr %6) #7
  call void @llvm.lifetime.end.p0(i64 8, ptr %5) #7
  call void @llvm.lifetime.end.p0(i64 4, ptr %4) #7
  %77 = load i32, ptr %2, align 4
  ret i32 %77
}