; Function Attrs: nounwind uwtable
define internal range(i32 -22, 1) i32 @au_write_header(ptr noundef %0) #1 {
  %2 = alloca %struct.AVBPrint, align 8
  %3 = getelementptr inbounds nuw i8, ptr %0, i64 24
  %4 = load ptr, ptr %3, align 8, !tbaa !51
  %5 = getelementptr inbounds nuw i8, ptr %0, i64 32
  %6 = load ptr, ptr %5, align 8, !tbaa !13
  %7 = getelementptr inbounds nuw i8, ptr %0, i64 48
  %8 = load ptr, ptr %7, align 8, !tbaa !52
  %9 = load ptr, ptr %8, align 8, !tbaa !53
  %10 = getelementptr inbounds nuw i8, ptr %9, i64 16
  %11 = load ptr, ptr %10, align 8, !tbaa !32
  call void @llvm.lifetime.start.p0(i64 1024, ptr nonnull %2) #6
  %12 = getelementptr inbounds nuw i8, ptr %11, i64 4
  %13 = load i32, ptr %12, align 4, !tbaa !43
  %14 = tail call i32 @ff_codec_get_tag(ptr noundef nonnull @codec_au_tags, i32 noundef %13) #6
  %15 = getelementptr inbounds nuw i8, ptr %11, i64 8
  store i32 %14, ptr %15, align 8, !tbaa !42
  %.not = icmp eq i32 %14, 0
  br i1 %.not, label %16, label %17

16:                                               ; preds = %1
  tail call void (ptr, i32, ptr, ...) @av_log(ptr noundef nonnull %0, i32 noundef 16, ptr noundef nonnull @.str.13) #6
  br label %46

17:                                               ; preds = %1
  call void @av_bprint_init(ptr noundef nonnull %2, i32 noundef 0, i32 noundef 2147483623) #6
  %18 = getelementptr i8, ptr %0, i64 192
  %.val = load ptr, ptr %18, align 8, !tbaa !55
  br label %19

19:                                               ; preds = %28, %17
  %indvars.iv.i = phi i64 [ 0, %17 ], [ %indvars.iv.next.i, %28 ]
  %.0121.i = phi i32 [ 0, %17 ], [ %.1.i, %28 ]
  %20 = getelementptr inbounds nuw [5 x [7 x i8]], ptr @au_get_annotations.keys, i64 0, i64 %indvars.iv.i
  %21 = call ptr @av_dict_get(ptr noundef %.val, ptr noundef nonnull %20, ptr noundef null, i32 noundef 0) #6
  %.not15.i = icmp eq ptr %21, null
  br i1 %.not15.i, label %28, label %22

22:                                               ; preds = %19
  %23 = add nsw i32 %.0121.i, 1
  %.not16.i = icmp eq i32 %.0121.i, 0
  br i1 %.not16.i, label %25, label %24

24:                                               ; preds = %22
  call void @av_bprint_chars(ptr noundef nonnull %2, i8 noundef signext 10, i32 noundef 1) #6
  br label %25

25:                                               ; preds = %24, %22
  %26 = getelementptr inbounds nuw i8, ptr %21, i64 8
  %27 = load ptr, ptr %26, align 8, !tbaa !56
  call void (ptr, ptr, ...) @av_bprintf(ptr noundef nonnull %2, ptr noundef nonnull @.str.15, ptr noundef nonnull %20, ptr noundef %27) #6
  br label %28

28:                                               ; preds = %25, %19
  %.1.i = phi i32 [ %23, %25 ], [ %.0121.i, %19 ]
  %indvars.iv.next.i = add nuw nsw i64 %indvars.iv.i, 1
  %exitcond.not.i = icmp eq i64 %indvars.iv.next.i, 5
  br i1 %exitcond.not.i, label %au_get_annotations.exit, label %19, !llvm.loop !58

au_get_annotations.exit:                          ; preds = %28
  call void @av_bprint_chars(ptr noundef nonnull %2, i8 noundef signext 0, i32 noundef 8) #6
  %29 = getelementptr inbounds nuw i8, ptr %2, i64 8
  %.val.i = load i32, ptr %29, align 8, !tbaa !59
  %30 = getelementptr inbounds nuw i8, ptr %2, i64 12
  %.val17.i = load i32, ptr %30, align 4, !tbaa !61
  %.not.i.not = icmp ult i32 %.val.i, %.val17.i
  %31 = select i1 %.not.i.not, i32 0, i32 -12
  br i1 %.not.i.not, label %32, label %44

32:                                               ; preds = %au_get_annotations.exit
  %33 = and i32 %.val.i, -8
  %34 = add i32 %33, 24
  store i32 %34, ptr %4, align 4, !tbaa !62
  call void @avio_wl32(ptr noundef %6, i32 noundef 1684960046) #6
  %35 = load i32, ptr %4, align 4, !tbaa !62
  call void @avio_wb32(ptr noundef %6, i32 noundef %35) #6
  call void @avio_wb32(ptr noundef %6, i32 noundef -1) #6
  %36 = load i32, ptr %15, align 8, !tbaa !42
  call void @avio_wb32(ptr noundef %6, i32 noundef %36) #6
  %37 = getelementptr inbounds nuw i8, ptr %11, i64 152
  %38 = load i32, ptr %37, align 8, !tbaa !45
  call void @avio_wb32(ptr noundef %6, i32 noundef %38) #6
  %39 = getelementptr inbounds nuw i8, ptr %11, i64 132
  %40 = load i32, ptr %39, align 4, !tbaa !44
  call void @avio_wb32(ptr noundef %6, i32 noundef %40) #6
  %41 = load ptr, ptr %2, align 8, !tbaa !64
  %42 = load i32, ptr %29, align 8, !tbaa !59
  %43 = and i32 %42, -8
  call void @avio_write(ptr noundef %6, ptr noundef %41, i32 noundef %43) #6
  br label %44

44:                                               ; preds = %au_get_annotations.exit, %32
  %45 = call i32 @av_bprint_finalize(ptr noundef nonnull %2, ptr noundef null) #6
  br label %46

46:                                               ; preds = %44, %16
  %.0 = phi i32 [ %31, %44 ], [ -22, %16 ]
  call void @llvm.lifetime.end.p0(i64 1024, ptr nonnull %2) #6
  ret i32 %.0
}